; ModuleID = 'source-C-CXX/26/1475.c'
source_filename = "source-C-CXX/26/1475.c"
target datalayout = "e-m:e-p270:32:32-p271:32:32-p272:64:64-i64:64-f80:128-n8:16:32:64-S128"
target triple = "x86_64-pc-linux-gnu"

@.str = private unnamed_addr constant [4 x i8] c"%d\0A\00", align 1
@.str.1 = private unnamed_addr constant [11 x i8] c"%lf%lf%lf\0A\00", align 1
@.str.2 = private unnamed_addr constant [13 x i8] c"x1=x2=%.5lf\0A\00", align 1
@.str.3 = private unnamed_addr constant [19 x i8] c"x1=%.5lf;x2=%.5lf\0A\00", align 1
@.str.4 = private unnamed_addr constant [33 x i8] c"x1=%.5lf+%.5lfi;x2=%.5lf-%.5lfi\0A\00", align 1

; Function Attrs: nofree nounwind sspstrong uwtable
define dso_local i32 @main() local_unnamed_addr #0 {
  %1 = alloca i32, align 4
  %2 = alloca double, align 8
  %3 = alloca double, align 8
  %4 = alloca double, align 8
  %5 = bitcast i32* %1 to i8*
  call void @llvm.lifetime.start.p0i8(i64 4, i8* nonnull %5) #4
  %6 = bitcast double* %2 to i8*
  call void @llvm.lifetime.start.p0i8(i64 8, i8* nonnull %6) #4
  %7 = bitcast double* %3 to i8*
  call void @llvm.lifetime.start.p0i8(i64 8, i8* nonnull %7) #4
  %8 = bitcast double* %4 to i8*
  call void @llvm.lifetime.start.p0i8(i64 8, i8* nonnull %8) #4
  %9 = call i32 (i8*, ...) @__isoc99_scanf(i8* getelementptr inbounds ([4 x i8], [4 x i8]* @.str, i64 0, i64 0), i32* nonnull %1)
  %10 = load i32, i32* %1, align 4, !tbaa !5
  %11 = icmp sgt i32 %10, 0
  br i1 %11, label %12, label %75

12:                                               ; preds = %0, %71
  %13 = phi i32 [ %72, %71 ], [ 0, %0 ]
  %14 = call i32 (i8*, ...) @__isoc99_scanf(i8* getelementptr inbounds ([11 x i8], [11 x i8]* @.str.1, i64 0, i64 0), double* nonnull %2, double* nonnull %3, double* nonnull %4)
  %15 = load double, double* %3, align 8, !tbaa !9
  %16 = fmul double %15, %15
  %17 = load double, double* %2, align 8, !tbaa !9
  %18 = fmul double %17, 4.000000e+00
  %19 = load double, double* %4, align 8, !tbaa !9
  %20 = fmul double %18, %19
  %21 = fsub double %16, %20
  %22 = fcmp ogt double %21, 0.000000e+00
  br i1 %22, label %23, label %53

23:                                               ; preds = %12
  %24 = call double @sqrt(double %21) #4
  %25 = load double, double* %2, align 8, !tbaa !9
  %26 = load double, double* %3, align 8, !tbaa !9
  %27 = fneg double %26
  %28 = fmul double %26, %26
  %29 = fmul double %25, 4.000000e+00
  %30 = load double, double* %4, align 8, !tbaa !9
  %31 = fmul double %29, %30
  %32 = fsub double %28, %31
  %33 = call double @sqrt(double %32) #4
  %34 = insertelement <2 x double> poison, double %24, i32 0
  %35 = insertelement <2 x double> %34, double %27, i32 1
  %36 = insertelement <2 x double> poison, double %15, i32 0
  %37 = insertelement <2 x double> %36, double %33, i32 1
  %38 = fsub <2 x double> %35, %37
  %39 = load double, double* %2, align 8, !tbaa !9
  %40 = insertelement <2 x double> poison, double %25, i32 0
  %41 = insertelement <2 x double> %40, double %39, i32 1
  %42 = fmul <2 x double> %41, <double 2.000000e+00, double 2.000000e+00>
  %43 = fdiv <2 x double> %38, %42
  %44 = fcmp oeq <2 x double> %43, zeroinitializer
  %45 = select <2 x i1> %44, <2 x double> zeroinitializer, <2 x double> %43
  %46 = extractelement <2 x double> %45, i32 0
  %47 = extractelement <2 x double> %45, i32 1
  %48 = fcmp oeq double %46, %47
  br i1 %48, label %49, label %51

49:                                               ; preds = %23
  %50 = call i32 (i8*, ...) @printf(i8* nonnull dereferenceable(1) getelementptr inbounds ([13 x i8], [13 x i8]* @.str.2, i64 0, i64 0), double %46, double %47)
  br label %71

51:                                               ; preds = %23
  %52 = call i32 (i8*, ...) @printf(i8* nonnull dereferenceable(1) getelementptr inbounds ([19 x i8], [19 x i8]* @.str.3, i64 0, i64 0), double %46, double %47)
  br label %71

53:                                               ; preds = %12
  %54 = fneg double %15
  %55 = fmul double %17, 2.000000e+00
  %56 = fdiv double %54, %55
  %57 = fcmp oeq double %56, 0.000000e+00
  %58 = select i1 %57, double 0.000000e+00, double %56
  %59 = fsub double %20, %16
  %60 = call double @sqrt(double %59) #4
  %61 = fneg double %60
  %62 = load double, double* %2, align 8, !tbaa !9
  %63 = fmul double %62, 2.000000e+00
  %64 = fdiv double %61, %63
  %65 = fcmp oeq double %64, 0.000000e+00
  br i1 %65, label %66, label %68

66:                                               ; preds = %53
  %67 = call i32 (i8*, ...) @printf(i8* nonnull dereferenceable(1) getelementptr inbounds ([13 x i8], [13 x i8]* @.str.2, i64 0, i64 0), double %58, double %58)
  br label %71

68:                                               ; preds = %53
  %69 = fneg double %64
  %70 = call i32 (i8*, ...) @printf(i8* nonnull dereferenceable(1) getelementptr inbounds ([33 x i8], [33 x i8]* @.str.4, i64 0, i64 0), double %58, double %69, double %58, double %69)
  br label %71

71:                                               ; preds = %51, %49, %68, %66
  %72 = add nuw nsw i32 %13, 1
  %73 = load i32, i32* %1, align 4, !tbaa !5
  %74 = icmp slt i32 %72, %73
  br i1 %74, label %12, label %75, !llvm.loop !11

75:                                               ; preds = %71, %0
  call void @llvm.lifetime.end.p0i8(i64 8, i8* nonnull %8) #4
  call void @llvm.lifetime.end.p0i8(i64 8, i8* nonnull %7) #4
  call void @llvm.lifetime.end.p0i8(i64 8, i8* nonnull %6) #4
  call void @llvm.lifetime.end.p0i8(i64 4, i8* nonnull %5) #4
  ret i32 0
}

; Function Attrs: argmemonly mustprogress nofree nosync nounwind willreturn
declare void @llvm.lifetime.start.p0i8(i64 immarg, i8* nocapture) #1

; Function Attrs: nofree nounwind
declare noundef i32 @__isoc99_scanf(i8* nocapture noundef readonly, ...) local_unnamed_addr #2

; Function Attrs: mustprogress nofree nounwind willreturn
declare double @sqrt(double) local_unnamed_addr #3

; Function Attrs: nofree nounwind
declare noundef i32 @printf(i8* nocapture noundef readonly, ...) local_unnamed_addr #2

; Function Attrs: argmemonly mustprogress nofree nosync nounwind willreturn
declare void @llvm.lifetime.end.p0i8(i64 immarg, i8* nocapture) #1


!llvm.module.flags = !{!0, !1, !2, !3}
!llvm.ident = !{!4}

!0 = !{i32 1, !"wchar_size", i32 4}
!1 = !{i32 7, !"PIC Level", i32 2}
!2 = !{i32 7, !"PIE Level", i32 2}
!3 = !{i32 7, !"uwtable", i32 1}
!4 = !{!"clang version 13.0.0"}
!5 = !{!6, !6, i64 0}
!6 = !{!"int", !7, i64 0}
!7 = !{!"omnipotent char", !8, i64 0}
!8 = !{!"Simple C/C++ TBAA"}
!9 = !{!10, !10, i64 0}
!10 = !{!"double", !7, i64 0}
!11 = distinct !{!11, !12}
!12 = !{!"llvm.loop.mustprogress"}
